Certificate:
    Data:
        Version: 3 (0x2)
        Serial Number: 3 (0x3)
    Signature Algorithm: sha256WithRSAEncryption
        Issuer: C=US, ST=CA, L=SanFrancisco, O=TestOrg, OU=TestOrgUnit, CN=TestOrg CA/name=server/emailAddress=test@mail.com
        Validity
            Not Before: Mar 26 17:07:54 2021 GMT
            Not After : Mar 24 17:07:54 2031 GMT
        Subject: C=US, ST=CA, L=SanFrancisco, O=TestOrg, OU=TestOrgUnit, CN=dn.fri-et/name=server/emailAddress=test@mail.com
        Subject Public Key Info:
            Public Key Algorithm: rsaEncryption
                Public-Key: (2048 bit)
                Modulus:
                    00:ab:d8:7f:62:11:70:90:4d:72:2d:43:5a:19:89:
                    db:53:97:e0:b8:6f:2b:a1:5a:6c:e7:04:b8:06:35:
                    57:46:e8:02:24:37:c1:0c:97:3f:69:35:f3:a2:c9:
                    14:21:5b:5d:51:db:09:cd:61:ef:f0:14:01:a8:3c:
                    c1:c5:0c:d6:a7:a1:53:fb:ae:08:91:65:f9:fb:08:
                    b1:c1:dd:8a:21:69:e9:49:52:6a:cb:3e:cc:10:32:
                    5d:f6:f4:7f:2e:9b:86:1c:8e:74:b4:90:c4:ad:38:
                    e4:eb:0e:c1:2f:07:59:69:d8:e6:1e:1c:53:fe:4b:
                    6d:4f:ea:37:bd:56:de:94:35:9a:a2:44:4a:66:e7:
                    7a:ca:1a:93:b0:c0:24:8e:8a:d9:77:0b:f9:71:81:
                    8b:a0:d8:bf:f5:55:2a:74:8c:c1:64:24:2f:e1:79:
                    b3:dc:a3:c1:42:ee:f3:0e:90:e0:25:3b:e7:ff:a7:
                    9c:bf:91:bc:c2:f0:2e:ed:ee:d1:8b:1b:96:ca:c0:
                    c5:26:ff:91:22:7a:bc:74:61:5e:65:03:35:92:ba:
                    26:53:d5:70:0f:90:d8:00:9e:f9:c0:d4:0a:dc:af:
                    86:a7:ac:42:d8:a6:75:8a:68:6d:37:2d:d9:e9:d0:
                    2a:74:0a:ff:b4:09:23:36:9b:a7:f6:de:d5:98:92:
                    93:91
                Exponent: 65537 (0x10001)
        X509v3 extensions:
            X509v3 Basic Constraints: 
                CA:FALSE
            Netscape Comment: 
                Easy-RSA Generated Certificate
            X509v3 Subject Key Identifier: 
                95:D4:D7:87:56:D0:F2:3F:6F:C6:77:1B:B8:0A:9A:48:44:D6:C1:91
            X509v3 Authority Key Identifier: 
                keyid:A5:4C:1E:AE:DD:D4:32:B7:2E:EF:64:1B:41:33:7E:9D:48:D2:8B:EA
                DirName:/C=US/ST=CA/L=SanFrancisco/O=TestOrg/OU=TestOrgUnit/CN=TestOrg CA/name=server/emailAddress=test@mail.com
                serial:AC:95:B0:7A:60:71:4B:95

            X509v3 Extended Key Usage: 
                TLS Web Client Authentication
            X509v3 Key Usage: 
                Digital Signature
            X509v3 Subject Alternative Name: 
                DNS:dn.fri-et
    Signature Algorithm: sha256WithRSAEncryption
         56:47:a2:26:43:78:b3:82:3d:9d:a6:41:35:d6:3e:7e:54:dc:
         c1:72:f9:52:05:27:69:e7:eb:0f:4d:8d:4c:09:40:aa:02:8e:
         fc:9b:fd:f8:8f:b8:85:67:4a:80:bf:3a:ae:66:1c:da:04:28:
         e9:77:84:ca:f6:f7:c5:2f:6c:8b:ee:65:1f:e8:28:86:fb:69:
         6a:42:21:99:3b:dd:b5:71:16:fd:c8:ec:f4:bd:09:e9:0e:12:
         b2:1d:f8:88:a0:02:48:ad:ca:97:d9:6e:b5:3b:59:96:5c:41:
         ab:68:b3:27:fb:24:2e:c9:bf:aa:35:74:cc:36:ec:2c:11:d7:
         da:74:60:8c:e6:df:07:da:f6:4a:c8:45:c6:d2:d0:1a:d7:a0:
         14:6b:eb:f0:85:87:4e:e4:e5:62:e4:b2:51:2a:dc:a9:1e:6c:
         c2:c2:f0:2f:60:25:29:a6:08:13:13:9f:8c:0a:11:a0:31:8e:
         29:88:46:07:3f:36:a2:8f:61:ad:86:da:e8:8f:e8:9e:a3:11:
         1a:77:40:29:ef:cd:8f:77:85:71:76:54:0e:e9:dd:aa:f6:3e:
         8b:bd:57:61:97:4f:47:c8:f1:d3:10:71:aa:b2:8f:25:4e:8c:
         ef:d1:09:6b:97:a3:b0:ab:f3:7d:7f:2c:98:ce:bc:21:98:b8:
         68:ba:c0:d1
-----BEGIN CERTIFICATE-----
MIIFIjCCBAqgAwIBAgIBAzANBgkqhkiG9w0BAQsFADCBnTELMAkGA1UEBhMCVVMx
CzAJBgNVBAgTAkNBMRUwEwYDVQQHEwxTYW5GcmFuY2lzY28xEDAOBgNVBAoTB1Rl
c3RPcmcxFDASBgNVBAsTC1Rlc3RPcmdVbml0MRMwEQYDVQQDEwpUZXN0T3JnIENB
MQ8wDQYDVQQpEwZzZXJ2ZXIxHDAaBgkqhkiG9w0BCQEWDXRlc3RAbWFpbC5jb20w
HhcNMjEwMzI2MTcwNzU0WhcNMzEwMzI0MTcwNzU0WjCBnDELMAkGA1UEBhMCVVMx
CzAJBgNVBAgTAkNBMRUwEwYDVQQHEwxTYW5GcmFuY2lzY28xEDAOBgNVBAoTB1Rl
c3RPcmcxFDASBgNVBAsTC1Rlc3RPcmdVbml0MRIwEAYDVQQDEwlkbi5mcmktZXQx
DzANBgNVBCkTBnNlcnZlcjEcMBoGCSqGSIb3DQEJARYNdGVzdEBtYWlsLmNvbTCC
ASIwDQYJKoZIhvcNAQEBBQADggEPADCCAQoCggEBAKvYf2IRcJBNci1DWhmJ21OX
4LhvK6FabOcEuAY1V0boAiQ3wQyXP2k186LJFCFbXVHbCc1h7/AUAag8wcUM1qeh
U/uuCJFl+fsIscHdiiFp6UlSass+zBAyXfb0fy6bhhyOdLSQxK045OsOwS8HWWnY
5h4cU/5LbU/qN71W3pQ1mqJESmbnesoak7DAJI6K2XcL+XGBi6DYv/VVKnSMwWQk
L+F5s9yjwULu8w6Q4CU75/+nnL+RvMLwLu3u0YsblsrAxSb/kSJ6vHRhXmUDNZK6
JlPVcA+Q2ACe+cDUCtyvhqesQtimdYpobTct2enQKnQK/7QJIzabp/be1ZiSk5EC
AwEAAaOCAWowggFmMAkGA1UdEwQCMAAwLQYJYIZIAYb4QgENBCAWHkVhc3ktUlNB
IEdlbmVyYXRlZCBDZXJ0aWZpY2F0ZTAdBgNVHQ4EFgQUldTXh1bQ8j9vxncbuAqa
SETWwZEwgdIGA1UdIwSByjCBx4AUpUwert3UMrcu72QbQTN+nUjSi+qhgaOkgaAw
gZ0xCzAJBgNVBAYTAlVTMQswCQYDVQQIEwJDQTEVMBMGA1UEBxMMU2FuRnJhbmNp
c2NvMRAwDgYDVQQKEwdUZXN0T3JnMRQwEgYDVQQLEwtUZXN0T3JnVW5pdDETMBEG
A1UEAxMKVGVzdE9yZyBDQTEPMA0GA1UEKRMGc2VydmVyMRwwGgYJKoZIhvcNAQkB
Fg10ZXN0QG1haWwuY29tggkArJWwemBxS5UwEwYDVR0lBAwwCgYIKwYBBQUHAwIw
CwYDVR0PBAQDAgeAMBQGA1UdEQQNMAuCCWRuLmZyaS1ldDANBgkqhkiG9w0BAQsF
AAOCAQEAVkeiJkN4s4I9naZBNdY+flTcwXL5UgUnaefrD02NTAlAqgKO/Jv9+I+4
hWdKgL86rmYc2gQo6XeEyvb3xS9si+5lH+gohvtpakIhmTvdtXEW/cjs9L0J6Q4S
sh34iKACSK3Kl9lutTtZllxBq2izJ/skLsm/qjV0zDbsLBHX2nRgjObfB9r2SshF
xtLQGtegFGvr8IWHTuTlYuSyUSrcqR5swsLwL2AlKaYIExOfjAoRoDGOKYhGBz82
oo9hrYba6I/onqMRGndAKe/Nj3eFcXZUDundqvY+i71XYZdPR8jx0xBxqrKPJU6M
79EJa5ejsKvzfX8smM68IZi4aLrA0Q==
-----END CERTIFICATE-----
