Certificate:
    Data:
        Version: 3 (0x2)
        Serial Number: 5 (0x5)
    Signature Algorithm: sha256WithRSAEncryption
        Issuer: C=US, ST=CA, L=SanFrancisco, O=TestOrg, OU=TestOrgUnit, CN=TestOrg CA/name=server/emailAddress=test@mail.com
        Validity
            Not Before: Mar 26 21:01:42 2021 GMT
            Not After : Mar 24 21:01:42 2031 GMT
        Subject: C=US, ST=CA, L=SanFrancisco, O=TestOrg, OU=TestOrgUnit, CN=test.symbol-client/name=server/emailAddress=test@mail.com
        Subject Public Key Info:
            Public Key Algorithm: rsaEncryption
                Public-Key: (2048 bit)
                Modulus:
                    00:bb:70:fb:b8:b6:f3:38:23:8b:0d:e7:43:18:c0:
                    ae:b2:b7:e9:82:a4:9d:3b:3d:d3:9b:94:d3:81:19:
                    e0:a9:6c:bc:c3:0a:c2:df:44:a4:ca:f1:72:55:31:
                    85:d6:5c:4f:de:a5:f0:13:98:cd:32:d9:1e:25:8d:
                    1f:41:4e:cd:7e:08:20:69:b3:05:2c:fa:db:ac:92:
                    9d:b8:48:44:a2:57:f3:13:eb:10:cd:f1:70:b6:09:
                    f0:86:a9:c2:cf:d2:a8:cd:a9:84:64:f0:aa:40:11:
                    c7:7c:ee:06:ab:b8:ab:21:da:fb:b4:a4:aa:be:86:
                    53:9a:d0:af:bd:07:aa:76:3a:d6:b8:2d:9a:d3:7c:
                    df:42:ee:5b:f6:a2:5f:38:fe:b2:2b:b9:dd:ef:3c:
                    4c:cd:da:4d:c9:08:5d:ed:1c:68:4c:52:f1:b5:fa:
                    29:c2:e4:61:fb:a8:05:01:c8:92:00:bc:96:d4:f7:
                    0f:89:a2:e5:0b:4a:88:78:0e:ad:b0:4c:51:67:32:
                    2a:33:12:68:4f:67:7d:d1:d4:ab:10:71:5c:af:f8:
                    8e:0c:c0:bb:71:a1:5b:18:46:6f:23:a3:d6:a6:ac:
                    56:18:34:dc:3f:43:6d:8e:f5:8c:7c:c4:db:ec:33:
                    d3:fc:b6:51:22:54:a2:3f:0d:d4:10:97:93:6a:0b:
                    fe:4f
                Exponent: 65537 (0x10001)
        X509v3 extensions:
            X509v3 Basic Constraints: 
                CA:FALSE
            Netscape Comment: 
                Easy-RSA Generated Certificate
            X509v3 Subject Key Identifier: 
                6E:29:02:2E:79:8C:2C:4F:95:FF:CF:EA:60:0E:46:4D:0A:62:BC:F3
            X509v3 Authority Key Identifier: 
                keyid:A5:4C:1E:AE:DD:D4:32:B7:2E:EF:64:1B:41:33:7E:9D:48:D2:8B:EA
                DirName:/C=US/ST=CA/L=SanFrancisco/O=TestOrg/OU=TestOrgUnit/CN=TestOrg CA/name=server/emailAddress=test@mail.com
                serial:AC:95:B0:7A:60:71:4B:95

            X509v3 Extended Key Usage: 
                TLS Web Client Authentication
            X509v3 Key Usage: 
                Digital Signature
            X509v3 Subject Alternative Name: 
                DNS:test.symbol-client
    Signature Algorithm: sha256WithRSAEncryption
         22:75:c5:65:f5:cd:0a:32:8a:c2:56:8d:2c:3e:9f:ea:66:b9:
         4f:65:cd:36:f4:1a:e3:a0:dc:f1:cb:a2:53:f3:0d:4b:10:e6:
         e8:fd:e7:87:c1:49:c5:09:c8:51:17:4f:06:07:0e:4f:dd:c9:
         e5:1b:e6:9d:a3:41:f5:72:61:f7:d0:d2:0f:ba:54:66:03:f7:
         b8:e1:ff:d8:9c:01:6a:0e:ec:6e:ff:1b:e4:63:01:21:c8:f4:
         67:b3:e3:69:eb:99:69:81:e8:15:56:56:f6:b2:ca:3f:18:2c:
         58:34:d3:92:95:86:8a:45:38:a3:6d:6d:00:ce:51:cc:b5:bb:
         ed:fa:9a:58:a3:39:ac:23:8b:b5:cf:ba:6f:32:82:f8:38:ab:
         db:78:99:d4:2e:a8:03:1a:c7:76:bc:55:f9:72:fe:51:c8:12:
         cf:d6:04:d6:83:f9:14:88:8e:2d:3d:17:69:71:b6:bf:54:75:
         01:ba:ec:b8:90:f7:45:5c:06:15:9f:43:73:66:b8:d0:22:89:
         b1:d1:81:2e:63:c8:ee:8b:da:e3:ff:3e:0f:1c:4f:f9:61:ed:
         eb:a2:73:b1:ce:d5:f8:76:82:5f:b3:a2:e4:55:5f:b5:65:aa:
         e4:8c:a8:85:64:df:ff:d2:cd:86:94:f2:3f:e7:e1:8f:7e:87:
         b5:73:37:1d
-----BEGIN CERTIFICATE-----
MIIFNDCCBBygAwIBAgIBBTANBgkqhkiG9w0BAQsFADCBnTELMAkGA1UEBhMCVVMx
CzAJBgNVBAgTAkNBMRUwEwYDVQQHEwxTYW5GcmFuY2lzY28xEDAOBgNVBAoTB1Rl
c3RPcmcxFDASBgNVBAsTC1Rlc3RPcmdVbml0MRMwEQYDVQQDEwpUZXN0T3JnIENB
MQ8wDQYDVQQpEwZzZXJ2ZXIxHDAaBgkqhkiG9w0BCQEWDXRlc3RAbWFpbC5jb20w
HhcNMjEwMzI2MjEwMTQyWhcNMzEwMzI0MjEwMTQyWjCBpTELMAkGA1UEBhMCVVMx
CzAJBgNVBAgTAkNBMRUwEwYDVQQHEwxTYW5GcmFuY2lzY28xEDAOBgNVBAoTB1Rl
c3RPcmcxFDASBgNVBAsTC1Rlc3RPcmdVbml0MRswGQYDVQQDExJ0ZXN0LnN5bWJv
bC1jbGllbnQxDzANBgNVBCkTBnNlcnZlcjEcMBoGCSqGSIb3DQEJARYNdGVzdEBt
YWlsLmNvbTCCASIwDQYJKoZIhvcNAQEBBQADggEPADCCAQoCggEBALtw+7i28zgj
iw3nQxjArrK36YKknTs905uU04EZ4KlsvMMKwt9EpMrxclUxhdZcT96l8BOYzTLZ
HiWNH0FOzX4IIGmzBSz626ySnbhIRKJX8xPrEM3xcLYJ8Iapws/SqM2phGTwqkAR
x3zuBqu4qyHa+7Skqr6GU5rQr70HqnY61rgtmtN830LuW/aiXzj+siu53e88TM3a
TckIXe0caExS8bX6KcLkYfuoBQHIkgC8ltT3D4mi5QtKiHgOrbBMUWcyKjMSaE9n
fdHUqxBxXK/4jgzAu3GhWxhGbyOj1qasVhg03D9DbY71jHzE2+wz0/y2USJUoj8N
1BCXk2oL/k8CAwEAAaOCAXMwggFvMAkGA1UdEwQCMAAwLQYJYIZIAYb4QgENBCAW
HkVhc3ktUlNBIEdlbmVyYXRlZCBDZXJ0aWZpY2F0ZTAdBgNVHQ4EFgQUbikCLnmM
LE+V/8/qYA5GTQpivPMwgdIGA1UdIwSByjCBx4AUpUwert3UMrcu72QbQTN+nUjS
i+qhgaOkgaAwgZ0xCzAJBgNVBAYTAlVTMQswCQYDVQQIEwJDQTEVMBMGA1UEBxMM
U2FuRnJhbmNpc2NvMRAwDgYDVQQKEwdUZXN0T3JnMRQwEgYDVQQLEwtUZXN0T3Jn
VW5pdDETMBEGA1UEAxMKVGVzdE9yZyBDQTEPMA0GA1UEKRMGc2VydmVyMRwwGgYJ
KoZIhvcNAQkBFg10ZXN0QG1haWwuY29tggkArJWwemBxS5UwEwYDVR0lBAwwCgYI
KwYBBQUHAwIwCwYDVR0PBAQDAgeAMB0GA1UdEQQWMBSCEnRlc3Quc3ltYm9sLWNs
aWVudDANBgkqhkiG9w0BAQsFAAOCAQEAInXFZfXNCjKKwlaNLD6f6ma5T2XNNvQa
46Dc8cuiU/MNSxDm6P3nh8FJxQnIURdPBgcOT93J5RvmnaNB9XJh99DSD7pUZgP3
uOH/2JwBag7sbv8b5GMBIcj0Z7PjaeuZaYHoFVZW9rLKPxgsWDTTkpWGikU4o21t
AM5RzLW77fqaWKM5rCOLtc+6bzKC+Dir23iZ1C6oAxrHdrxV+XL+UcgSz9YE1oP5
FIiOLT0XaXG2v1R1AbrsuJD3RVwGFZ9Dc2a40CKJsdGBLmPI7ova4/8+DxxP+WHt
66Jzsc7V+HaCX7Oi5FVftWWq5IyohWTf/9LNhpTyP+fhj36HtXM3HQ==
-----END CERTIFICATE-----
