Certificate:
    Data:
        Version: 3 (0x2)
        Serial Number: 4 (0x4)
    Signature Algorithm: sha256WithRSAEncryption
        Issuer: C=US, ST=CA, L=SanFrancisco, O=TestOrg, OU=TestOrgUnit, CN=TestOrg CA/name=server/emailAddress=test@mail.com
        Validity
            Not Before: Mar 26 20:17:16 2021 GMT
            Not After : Mar 24 20:17:16 2031 GMT
        Subject: C=US, ST=CA, L=SanFrancisco, O=TestOrg, OU=TestOrgUnit, CN=client3/name=server/emailAddress=test@mail.com
        Subject Public Key Info:
            Public Key Algorithm: rsaEncryption
                Public-Key: (2048 bit)
                Modulus:
                    00:bc:fb:87:3c:04:e2:15:cf:8a:a6:89:2f:96:e0:
                    98:f4:0b:21:f6:c8:6a:5d:57:7a:41:c0:f8:49:65:
                    4c:e8:e6:8b:a5:9a:ee:c6:3e:24:be:a1:32:77:73:
                    e2:fd:9e:5b:c1:27:6c:5f:83:15:f5:fe:58:0a:25:
                    1e:ee:27:d0:ae:99:ea:e2:e3:7c:e5:eb:3c:f3:5d:
                    80:90:e5:e1:22:db:93:42:57:2a:3f:ef:df:f9:5a:
                    00:39:a6:f4:64:7c:85:dc:b9:11:a4:ce:d8:ec:41:
                    07:45:50:e7:1e:48:34:88:e4:38:b2:75:6d:5f:c6:
                    d7:91:b1:04:8c:8c:cd:dd:53:cb:52:b4:dc:20:8c:
                    b3:fb:8d:0a:ac:a1:35:1e:b4:c3:7f:df:1b:bd:e3:
                    0f:f1:10:a2:94:0f:73:07:a3:96:27:30:54:eb:ea:
                    a8:df:06:ab:d9:1a:a9:89:3b:7c:44:38:cf:a6:ff:
                    45:16:cf:23:b7:cb:2a:1a:42:2f:6d:ee:79:68:8d:
                    d3:a5:43:d3:a4:41:f5:b0:6a:50:86:80:71:b8:16:
                    bd:2d:f0:05:89:57:45:96:59:63:99:ef:cb:27:52:
                    be:e3:c7:b7:91:52:35:81:ac:6b:8d:17:08:ae:98:
                    79:5d:9f:ce:94:c0:d0:9b:3e:2e:84:85:cd:b5:7f:
                    7c:63
                Exponent: 65537 (0x10001)
        X509v3 extensions:
            X509v3 Basic Constraints: 
                CA:FALSE
            Netscape Comment: 
                Easy-RSA Generated Certificate
            X509v3 Subject Key Identifier: 
                CB:35:87:27:C6:37:F3:63:4F:B5:30:93:DE:8E:5E:A2:7D:CB:4E:84
            X509v3 Authority Key Identifier: 
                keyid:A5:4C:1E:AE:DD:D4:32:B7:2E:EF:64:1B:41:33:7E:9D:48:D2:8B:EA
                DirName:/C=US/ST=CA/L=SanFrancisco/O=TestOrg/OU=TestOrgUnit/CN=TestOrg CA/name=server/emailAddress=test@mail.com
                serial:AC:95:B0:7A:60:71:4B:95

            X509v3 Extended Key Usage: 
                TLS Web Client Authentication
            X509v3 Key Usage: 
                Digital Signature
            X509v3 Subject Alternative Name: 
                DNS:client3
    Signature Algorithm: sha256WithRSAEncryption
         a1:ae:eb:71:12:af:21:8d:85:d7:41:b4:48:5c:1c:ea:df:32:
         4d:fd:66:15:a1:8c:90:1d:e7:8b:8b:6e:31:0f:64:64:93:b3:
         28:a9:59:06:ec:27:ea:8d:20:cd:8e:3b:7e:10:63:1d:de:13:
         db:be:73:d6:ad:c3:1b:45:c5:d0:41:5a:c5:8a:76:fc:39:a1:
         5d:0c:10:4e:5f:75:cc:3a:8c:47:e2:f3:a9:4f:3b:ee:5d:3d:
         17:66:5e:d9:e8:94:10:94:50:c8:94:89:2a:7b:68:be:5d:d7:
         b3:ea:c0:45:a8:11:3d:06:02:f5:b1:63:61:92:3a:da:23:f9:
         75:01:45:ac:8d:47:99:2c:6f:3b:04:1d:43:54:9e:45:51:04:
         ea:97:20:a7:8c:0f:62:19:fa:7c:01:08:04:67:cd:57:79:38:
         00:e8:01:dc:fb:d1:14:52:80:78:cb:6f:3d:6b:b1:d1:4a:6c:
         6f:37:b2:0e:c7:fc:7c:9b:24:32:f3:fc:49:a0:74:d4:8b:e1:
         5b:27:7b:43:f2:a5:bb:96:da:36:a9:37:cb:c2:18:fb:db:d6:
         40:cd:ff:89:60:34:d5:f6:8e:8a:69:64:1b:90:0e:ce:04:25:
         f6:3c:fc:d2:14:9f:26:4a:e1:35:eb:8f:49:c7:aa:86:04:7a:
         43:96:8d:42
-----BEGIN CERTIFICATE-----
MIIFHjCCBAagAwIBAgIBBDANBgkqhkiG9w0BAQsFADCBnTELMAkGA1UEBhMCVVMx
CzAJBgNVBAgTAkNBMRUwEwYDVQQHEwxTYW5GcmFuY2lzY28xEDAOBgNVBAoTB1Rl
c3RPcmcxFDASBgNVBAsTC1Rlc3RPcmdVbml0MRMwEQYDVQQDEwpUZXN0T3JnIENB
MQ8wDQYDVQQpEwZzZXJ2ZXIxHDAaBgkqhkiG9w0BCQEWDXRlc3RAbWFpbC5jb20w
HhcNMjEwMzI2MjAxNzE2WhcNMzEwMzI0MjAxNzE2WjCBmjELMAkGA1UEBhMCVVMx
CzAJBgNVBAgTAkNBMRUwEwYDVQQHEwxTYW5GcmFuY2lzY28xEDAOBgNVBAoTB1Rl
c3RPcmcxFDASBgNVBAsTC1Rlc3RPcmdVbml0MRAwDgYDVQQDEwdjbGllbnQzMQ8w
DQYDVQQpEwZzZXJ2ZXIxHDAaBgkqhkiG9w0BCQEWDXRlc3RAbWFpbC5jb20wggEi
MA0GCSqGSIb3DQEBAQUAA4IBDwAwggEKAoIBAQC8+4c8BOIVz4qmiS+W4Jj0CyH2
yGpdV3pBwPhJZUzo5oulmu7GPiS+oTJ3c+L9nlvBJ2xfgxX1/lgKJR7uJ9Cumeri
43zl6zzzXYCQ5eEi25NCVyo/79/5WgA5pvRkfIXcuRGkztjsQQdFUOceSDSI5Diy
dW1fxteRsQSMjM3dU8tStNwgjLP7jQqsoTUetMN/3xu94w/xEKKUD3MHo5YnMFTr
6qjfBqvZGqmJO3xEOM+m/0UWzyO3yyoaQi9t7nlojdOlQ9OkQfWwalCGgHG4Fr0t
8AWJV0WWWWOZ78snUr7jx7eRUjWBrGuNFwiumHldn86UwNCbPi6Ehc21f3xjAgMB
AAGjggFoMIIBZDAJBgNVHRMEAjAAMC0GCWCGSAGG+EIBDQQgFh5FYXN5LVJTQSBH
ZW5lcmF0ZWQgQ2VydGlmaWNhdGUwHQYDVR0OBBYEFMs1hyfGN/NjT7Uwk96OXqJ9
y06EMIHSBgNVHSMEgcowgceAFKVMHq7d1DK3Lu9kG0Ezfp1I0ovqoYGjpIGgMIGd
MQswCQYDVQQGEwJVUzELMAkGA1UECBMCQ0ExFTATBgNVBAcTDFNhbkZyYW5jaXNj
bzEQMA4GA1UEChMHVGVzdE9yZzEUMBIGA1UECxMLVGVzdE9yZ1VuaXQxEzARBgNV
BAMTClRlc3RPcmcgQ0ExDzANBgNVBCkTBnNlcnZlcjEcMBoGCSqGSIb3DQEJARYN
dGVzdEBtYWlsLmNvbYIJAKyVsHpgcUuVMBMGA1UdJQQMMAoGCCsGAQUFBwMCMAsG
A1UdDwQEAwIHgDASBgNVHREECzAJggdjbGllbnQzMA0GCSqGSIb3DQEBCwUAA4IB
AQChrutxEq8hjYXXQbRIXBzq3zJN/WYVoYyQHeeLi24xD2Rkk7MoqVkG7CfqjSDN
jjt+EGMd3hPbvnPWrcMbRcXQQVrFinb8OaFdDBBOX3XMOoxH4vOpTzvuXT0XZl7Z
6JQQlFDIlIkqe2i+Xdez6sBFqBE9BgL1sWNhkjraI/l1AUWsjUeZLG87BB1DVJ5F
UQTqlyCnjA9iGfp8AQgEZ81XeTgA6AHc+9EUUoB4y289a7HRSmxvN7IOx/x8myQy
8/xJoHTUi+FbJ3tD8qW7lto2qTfLwhj729ZAzf+JYDTV9o6KaWQbkA7OBCX2PPzS
FJ8mSuE1649Jx6qGBHpDlo1C
-----END CERTIFICATE-----
